target datalayout = "e-m:e-p270:32:32-p271:32:32-p272:64:64-i64:64-i128:128-f80:128-n8:16:32:64-S128"
target triple = "x86_64-pc-linux-gnu"

@stderr = external global ptr, align 8
@.str = private unnamed_addr constant [42 x i8] c"OOM error in native tmp buffer allocation\00", align 1

; Function Attrs: nounwind uwtable
define hidden ptr @resolve(ptr noundef %0, ptr noundef %1) #0 {
  %3 = alloca ptr, align 8
  %4 = alloca ptr, align 8
  %5 = alloca ptr, align 8
  %6 = alloca i32, align 4
  %7 = alloca ptr, align 8
  %8 = alloca i32, align 4
  %9 = alloca i32, align 4
  %10 = alloca i32, align 4
  %11 = alloca i32, align 4
  store ptr %0, ptr %4, align 8
  store ptr %1, ptr %5, align 8
  %12 = load ptr, ptr %4, align 8
  %13 = call i64 @strlen(ptr noundef %12) #5
  %14 = trunc i64 %13 to i32
  store i32 %14, ptr %8, align 4
  %15 = load ptr, ptr %5, align 8
  %16 = call i64 @strlen(ptr noundef %15) #5
  %17 = trunc i64 %16 to i32
  store i32 %17, ptr %9, align 4
  store i32 0, ptr %10, align 4
  %18 = load i32, ptr %8, align 4
  store i32 %18, ptr %11, align 4
  %19 = load i32, ptr %8, align 4
  %20 = icmp sgt i32 %19, 0
  br i1 %20, label %21, label %33

21:                                               ; preds = %2
  %22 = load ptr, ptr %4, align 8
  %23 = load i32, ptr %8, align 4
  %24 = sub nsw i32 %23, 1
  %25 = sext i32 %24 to i64
  %26 = getelementptr inbounds i8, ptr %22, i64 %25
  %27 = load i8, ptr %26, align 1
  %28 = sext i8 %27 to i32
  %29 = icmp eq i32 %28, 47
  br i1 %29, label %30, label %33

30:                                               ; preds = %21
  %31 = load i32, ptr %11, align 4
  %32 = add nsw i32 %31, -1
  store i32 %32, ptr %11, align 4
  br label %33

33:                                               ; preds = %30, %21, %2
  %34 = load i32, ptr %11, align 4
  %35 = load i32, ptr %9, align 4
  %36 = add nsw i32 %34, %35
  %37 = load i32, ptr %10, align 4
  %38 = sub nsw i32 %36, %37
  store i32 %38, ptr %6, align 4
  %39 = load ptr, ptr %5, align 8
  %40 = getelementptr inbounds i8, ptr %39, i64 0
  %41 = load i8, ptr %40, align 1
  %42 = sext i8 %41 to i32
  %43 = icmp eq i32 %42, 47
  br i1 %43, label %44, label %78

44:                                               ; preds = %33
  %45 = load i32, ptr %6, align 4
  %46 = add nsw i32 %45, 1
  %47 = sext i32 %46 to i64
  %48 = call noalias ptr @malloc(i64 noundef %47) #6
  store ptr %48, ptr %7, align 8
  %49 = load ptr, ptr %7, align 8
  %50 = icmp eq ptr %49, null
  br i1 %50, label %51, label %54

51:                                               ; preds = %44
  %52 = load ptr, ptr @stderr, align 8
  %53 = call i32 (ptr, ptr, ...) @fprintf(ptr noundef %52, ptr noundef @.str) #7
  store ptr null, ptr %3, align 8
  br label %120

54:                                               ; preds = %44
  %55 = load i32, ptr %11, align 4
  %56 = icmp sgt i32 %55, 0
  br i1 %56, label %57, label %62

57:                                               ; preds = %54
  %58 = load ptr, ptr %7, align 8
  %59 = load ptr, ptr %4, align 8
  %60 = load i32, ptr %11, align 4
  %61 = sext i32 %60 to i64
  call void @llvm.memcpy.p0.p0.i64(ptr align 1 %58, ptr align 1 %59, i64 %61, i1 false)
  br label %62

62:                                               ; preds = %57, %54
  %63 = load i32, ptr %9, align 4
  %64 = icmp sgt i32 %63, 0
  br i1 %64, label %65, label %73

65:                                               ; preds = %62
  %66 = load ptr, ptr %7, align 8
  %67 = load i32, ptr %11, align 4
  %68 = sext i32 %67 to i64
  %69 = getelementptr inbounds i8, ptr %66, i64 %68
  %70 = load ptr, ptr %5, align 8
  %71 = load i32, ptr %9, align 4
  %72 = sext i32 %71 to i64
  call void @llvm.memcpy.p0.p0.i64(ptr align 1 %69, ptr align 1 %70, i64 %72, i1 false)
  br label %73

73:                                               ; preds = %65, %62
  %74 = load ptr, ptr %7, align 8
  %75 = load i32, ptr %6, align 4
  %76 = sext i32 %75 to i64
  %77 = getelementptr inbounds i8, ptr %74, i64 %76
  store i8 0, ptr %77, align 1
  br label %118

78:                                               ; preds = %33
  %79 = load i32, ptr %6, align 4
  %80 = add nsw i32 %79, 2
  %81 = sext i32 %80 to i64
  %82 = call noalias ptr @malloc(i64 noundef %81) #6
  store ptr %82, ptr %7, align 8
  %83 = load ptr, ptr %7, align 8
  %84 = icmp eq ptr %83, null
  br i1 %84, label %85, label %88

85:                                               ; preds = %78
  %86 = load ptr, ptr @stderr, align 8
  %87 = call i32 (ptr, ptr, ...) @fprintf(ptr noundef %86, ptr noundef @.str) #7
  store ptr null, ptr %3, align 8
  br label %120

88:                                               ; preds = %78
  %89 = load i32, ptr %11, align 4
  %90 = icmp sgt i32 %89, 0
  br i1 %90, label %91, label %96

91:                                               ; preds = %88
  %92 = load ptr, ptr %7, align 8
  %93 = load ptr, ptr %4, align 8
  %94 = load i32, ptr %11, align 4
  %95 = sext i32 %94 to i64
  call void @llvm.memcpy.p0.p0.i64(ptr align 1 %92, ptr align 1 %93, i64 %95, i1 false)
  br label %96

96:                                               ; preds = %91, %88
  %97 = load ptr, ptr %7, align 8
  %98 = load i32, ptr %11, align 4
  %99 = sext i32 %98 to i64
  %100 = getelementptr inbounds i8, ptr %97, i64 %99
  store i8 47, ptr %100, align 1
  %101 = load i32, ptr %9, align 4
  %102 = icmp sgt i32 %101, 0
  br i1 %102, label %103, label %112

103:                                              ; preds = %96
  %104 = load ptr, ptr %7, align 8
  %105 = load i32, ptr %11, align 4
  %106 = sext i32 %105 to i64
  %107 = getelementptr inbounds i8, ptr %104, i64 %106
  %108 = getelementptr inbounds i8, ptr %107, i64 1
  %109 = load ptr, ptr %5, align 8
  %110 = load i32, ptr %9, align 4
  %111 = sext i32 %110 to i64
  call void @llvm.memcpy.p0.p0.i64(ptr align 1 %108, ptr align 1 %109, i64 %111, i1 false)
  br label %112

112:                                              ; preds = %103, %96
  %113 = load ptr, ptr %7, align 8
  %114 = load i32, ptr %6, align 4
  %115 = add nsw i32 %114, 1
  %116 = sext i32 %115 to i64
  %117 = getelementptr inbounds i8, ptr %113, i64 %116
  store i8 0, ptr %117, align 1
  br label %118

118:                                              ; preds = %112, %73
  %119 = load ptr, ptr %7, align 8
  store ptr %119, ptr %3, align 8
  br label %120

120:                                              ; preds = %118, %85, %51
  %121 = load ptr, ptr %3, align 8
  ret ptr %121
}