; Function Attrs: nofree nounwind uwtable
define hidden noalias noundef ptr @resolve(ptr nocapture noundef readonly %0, ptr nocapture noundef readonly %1) local_unnamed_addr #0 {
  %3 = tail call i64 @strlen(ptr noundef nonnull dereferenceable(1) %0) #7
  %4 = trunc i64 %3 to i32
  %5 = tail call i64 @strlen(ptr noundef nonnull dereferenceable(1) %1) #7
  %6 = trunc i64 %5 to i32
  %7 = icmp sgt i32 %4, 0
  br i1 %7, label %8, label %15

8:                                                ; preds = %2
  %9 = add i64 %3, 4294967295
  %10 = and i64 %9, 4294967295
  %11 = getelementptr inbounds i8, ptr %0, i64 %10
  %12 = load i8, ptr %11, align 1
  %13 = icmp eq i8 %12, 47
  %14 = sext i1 %13 to i32
  %spec.select = add nsw i32 %14, %4
  br label %15

15:                                               ; preds = %8, %2
  %.0 = phi i32 [ %4, %2 ], [ %spec.select, %8 ]
  %16 = add nsw i32 %.0, %6
  %17 = load i8, ptr %1, align 1
  %18 = icmp eq i8 %17, 47
  br i1 %18, label %19, label %40

19:                                               ; preds = %15
  %20 = add nsw i32 %16, 1
  %21 = sext i32 %20 to i64
  %22 = tail call noalias ptr @malloc(i64 noundef %21) #8
  %23 = icmp eq ptr %22, null
  br i1 %23, label %24, label %27

24:                                               ; preds = %19
  %25 = load ptr, ptr @stderr, align 8
  %26 = tail call i64 @fwrite(ptr nonnull @.str, i64 41, i64 1, ptr %25) #9
  br label %63

27:                                               ; preds = %19
  %28 = icmp sgt i32 %.0, 0
  br i1 %28, label %29, label %31

29:                                               ; preds = %27
  %30 = zext nneg i32 %.0 to i64
  tail call void @llvm.memcpy.p0.p0.i64(ptr nonnull align 1 %22, ptr align 1 %0, i64 %30, i1 false)
  br label %31

31:                                               ; preds = %29, %27
  %32 = icmp sgt i32 %6, 0
  br i1 %32, label %33, label %37

33:                                               ; preds = %31
  %34 = sext i32 %.0 to i64
  %35 = getelementptr inbounds i8, ptr %22, i64 %34
  %36 = and i64 %5, 2147483647
  tail call void @llvm.memcpy.p0.p0.i64(ptr nonnull align 1 %35, ptr nonnull align 1 %1, i64 %36, i1 false)
  br label %37

37:                                               ; preds = %33, %31
  %38 = sext i32 %16 to i64
  %39 = getelementptr inbounds i8, ptr %22, i64 %38
  store i8 0, ptr %39, align 1
  br label %63

40:                                               ; preds = %15
  %41 = add nsw i32 %16, 2
  %42 = sext i32 %41 to i64
  %43 = tail call noalias ptr @malloc(i64 noundef %42) #8
  %44 = icmp eq ptr %43, null
  br i1 %44, label %45, label %48

45:                                               ; preds = %40
  %46 = load ptr, ptr @stderr, align 8
  %47 = tail call i64 @fwrite(ptr nonnull @.str, i64 41, i64 1, ptr %46) #9
  br label %63

48:                                               ; preds = %40
  %49 = icmp sgt i32 %.0, 0
  br i1 %49, label %50, label %52

50:                                               ; preds = %48
  %51 = zext nneg i32 %.0 to i64
  tail call void @llvm.memcpy.p0.p0.i64(ptr nonnull align 1 %43, ptr align 1 %0, i64 %51, i1 false)
  br label %52

52:                                               ; preds = %50, %48
  %53 = sext i32 %.0 to i64
  %54 = getelementptr inbounds i8, ptr %43, i64 %53
  store i8 47, ptr %54, align 1
  %55 = icmp sgt i32 %6, 0
  br i1 %55, label %56, label %59

56:                                               ; preds = %52
  %57 = getelementptr inbounds i8, ptr %54, i64 1
  %58 = and i64 %5, 2147483647
  tail call void @llvm.memcpy.p0.p0.i64(ptr nonnull align 1 %57, ptr nonnull align 1 %1, i64 %58, i1 false)
  br label %59

59:                                               ; preds = %56, %52
  %60 = sext i32 %16 to i64
  %61 = getelementptr i8, ptr %43, i64 %60
  %62 = getelementptr i8, ptr %61, i64 1
  store i8 0, ptr %62, align 1
  br label %63

63:                                               ; preds = %37, %59, %45, %24
  %.040 = phi ptr [ null, %24 ], [ null, %45 ], [ %22, %37 ], [ %43, %59 ]
  ret ptr %.040
}